Certificate:
    Data:
        Version: 3 (0x2)
        Serial Number: 1 (0x1)
        Signature Algorithm: sha256WithRSAEncryption
        Issuer: OU=NATS.io, CN=www.nats.io
        Validity
            Not Before: May  6 07:29:23 2021 GMT
            Not After : Apr 17 07:29:23 2024 GMT
        Subject: CN=www.nats.io
        Subject Public Key Info:
            Public Key Algorithm: rsaEncryption
                RSA Public-Key: (4096 bit)
                Modulus:
                    00:d5:92:f9:68:6f:7c:a5:96:9b:21:6c:17:ca:48:
                    64:b4:19:3f:88:66:bf:06:a5:41:c3:7d:11:64:39:
                    a3:e8:93:f3:6a:64:98:c6:14:a8:4a:2f:6d:ea:d7:
                    f9:33:95:56:fc:a4:2b:0f:a3:84:44:d3:85:17:34:
                    ac:c8:86:eb:d2:80:00:e8:7f:e0:c8:13:0c:69:e1:
                    6d:9c:39:70:0e:0a:69:a8:b9:2e:ac:f0:30:72:de:
                    08:d8:e1:fd:32:36:fa:8f:4c:f8:40:8b:58:47:50:
                    02:30:de:d8:56:9e:fb:9f:7a:dd:81:d9:96:1e:db:
                    8e:07:1d:ae:ff:bf:aa:f3:1a:7d:2d:71:fc:19:76:
                    08:ea:2f:39:7d:bf:ab:26:c3:aa:1c:1d:67:6f:82:
                    97:cf:6b:bc:4b:3d:a4:67:60:6f:d0:19:3a:51:9a:
                    bd:fd:30:f7:88:99:c9:bf:3e:bf:f9:a8:ee:90:a2:
                    b6:7e:4c:2e:ca:8b:15:63:09:0d:72:fa:40:7c:12:
                    41:ff:25:e4:95:d9:4c:80:72:9c:07:87:75:2a:19:
                    23:0b:20:28:7d:0a:ff:83:c0:bf:58:c1:10:26:71:
                    98:74:81:24:d9:3c:17:d1:28:26:de:69:70:e2:9c:
                    72:9c:ae:bd:25:a8:6c:9b:94:4f:c6:27:69:8a:cc:
                    75:92:f9:e9:65:60:0c:a0:c2:84:68:99:f6:f7:65:
                    c2:1e:cf:42:6b:58:7c:a4:71:62:68:26:55:f0:11:
                    6f:3d:b7:e2:28:40:4d:ef:75:a8:93:a0:56:c4:e4:
                    e6:6a:87:8c:bc:0a:7e:fe:d0:2a:de:36:6d:d4:10:
                    9c:71:e3:62:b0:3e:9c:cc:54:61:82:11:39:f8:9c:
                    46:8a:54:95:f3:9b:d4:01:6e:92:0d:19:1f:0f:d3:
                    7c:8e:c1:00:45:fc:8f:a2:5e:28:1b:46:fe:5f:77:
                    0a:99:61:7e:f4:41:57:d7:74:49:1f:c5:7f:a2:13:
                    03:cf:63:de:fb:09:e9:fa:64:27:a8:61:7a:25:bb:
                    c8:68:2e:c4:de:e3:98:e9:d2:93:bd:eb:8c:e6:6a:
                    39:c2:f1:fd:0a:0c:7d:1e:0c:da:98:ce:ff:ef:ba:
                    b0:15:cc:1d:85:fa:55:bd:4c:00:fd:7b:62:b3:70:
                    63:80:21:34:9b:9a:85:b0:13:fd:3e:41:df:b3:17:
                    65:49:b0:25:17:9b:59:8d:f2:0a:1c:08:53:7e:01:
                    8b:c6:e6:68:e7:c7:8d:92:a5:68:b4:19:96:28:6d:
                    03:cf:7e:da:e8:e4:51:4a:ff:f0:8f:71:d0:e7:10:
                    6f:25:52:98:33:d3:6f:c0:91:a7:a1:99:fa:47:d7:
                    18:a5:af
                Exponent: 65537 (0x10001)
        X509v3 extensions:
            X509v3 Basic Constraints: 
                CA:FALSE
            X509v3 Key Usage: 
                Digital Signature, Non Repudiation, Key Encipherment
            Authority Information Access: 
                OCSP - URI:http://127.0.0.1:8888

            TLS Feature: 
                status_request
            X509v3 Subject Alternative Name: 
                DNS:app.nats.dev, DNS:*.app.nats.dev
    Signature Algorithm: sha256WithRSAEncryption
         8f:08:cf:aa:26:9a:82:de:b5:ac:39:aa:1a:34:6e:18:f3:fe:
         b7:c1:c3:b9:30:fc:0a:f5:3b:70:72:37:5f:a2:85:41:19:5e:
         19:a7:c3:f4:bb:ee:1c:66:03:4f:37:00:48:05:66:6e:74:11:
         1a:4a:e7:e0:38:9d:8f:67:57:84:c7:1e:09:6e:ab:88:16:46:
         2f:02:d1:11:07:b4:47:15:5b:e3:ee:89:69:29:bd:ab:eb:7a:
         20:83:2c:fd:31:41:53:00:95:2b:28:fa:50:9f:58:60:b2:3e:
         6b:28:8f:f3:8a:16:c4:52:1b:7e:4d:0c:17:8d:c0:7b:ad:fc:
         6f:72:c7:c7:f2:7f:5c:e7:7e:e5:9f:92:6a:45:a6:88:71:20:
         a3:da:a0:d5:3b:94:9d:0c:6f:fa:4c:61:93:a1:8d:05:2b:3f:
         59:53:f0:3a:60:f0:70:b1:1c:89:31:33:83:53:45:b6:74:bf:
         c0:45:20:b8:28:4d:9a:28:ce:f3:6a:ea:51:4a:90:23:3e:32:
         9b:0e:c1:3d:6e:85:e1:29:60:36:fb:63:e3:2f:a1:4b:3c:64:
         d4:e3:aa:75:61:f8:42:f9:16:c6:7e:72:d4:06:45:2a:40:00:
         e1:b8:d9:f0:20:e9:4e:85:36:36:5e:d2:d8:d6:b6:fe:fc:1e:
         4c:4a:85:a1:f0:b2:38:49:f5:21:6b:f7:19:02:95:0d:63:70:
         67:cf:1a:eb:3c:9b:fd:ed:2f:64:d1:ce:94:f3:58:51:c5:4b:
         93:df:0e:b3:d2:2a:5f:92:a0:7c:68:96:34:61:f2:dc:b0:c6:
         58:34:13:2b:d4:4e:59:7a:bc:32:8a:55:1b:2a:ab:5b:df:2a:
         ea:31:3e:43:53:9f:dc:8d:3a:9c:7b:33:69:84:7c:ad:33:d9:
         55:c7:1d:32:2f:71:b1:95:98:39:77:64:8e:f8:2f:91:2c:2d:
         26:01:92:ce:ee:63:dc:3c:4c:94:ee:9e:9e:d9:8d:47:72:97:
         de:11:88:ac:bc:e7:bc:92:76:db:53:46:de:4c:d8:6c:33:32:
         bb:18:e3:00:06:20:eb:80:a7:f0:06:23:f1:25:ee:c4:ec:11:
         f2:1a:fc:03:6e:63:bb:57:2b:b8:68:4e:5c:4d:6a:f3:39:28:
         4b:34:e4:1b:ce:96:dc:a7:22:44:8a:ef:33:33:cd:a1:b6:74:
         9b:ee:a3:6b:27:6b:94:29:ba:92:ef:61:1a:4d:18:47:6e:6f:
         e0:c1:ce:f5:38:76:c9:63:88:b1:ab:bc:ea:c8:0e:b5:26:3f:
         0c:2a:5e:0c:3b:f8:00:cb:8c:94:e0:79:9b:75:0f:04:34:e7:
         52:ec:bf:e1:27:7b:f2:6c
-----BEGIN CERTIFICATE-----
MIIFRDCCAyygAwIBAgIBATANBgkqhkiG9w0BAQsFADAoMRAwDgYDVQQLDAdOQVRT
LmlvMRQwEgYDVQQDDAt3d3cubmF0cy5pbzAeFw0yMTA1MDYwNzI5MjNaFw0yNDA0
MTcwNzI5MjNaMBYxFDASBgNVBAMMC3d3dy5uYXRzLmlvMIICIjANBgkqhkiG9w0B
AQEFAAOCAg8AMIICCgKCAgEA1ZL5aG98pZabIWwXykhktBk/iGa/BqVBw30RZDmj
6JPzamSYxhSoSi9t6tf5M5VW/KQrD6OERNOFFzSsyIbr0oAA6H/gyBMMaeFtnDlw
DgppqLkurPAwct4I2OH9Mjb6j0z4QItYR1ACMN7YVp77n3rdgdmWHtuOBx2u/7+q
8xp9LXH8GXYI6i85fb+rJsOqHB1nb4KXz2u8Sz2kZ2Bv0Bk6UZq9/TD3iJnJvz6/
+ajukKK2fkwuyosVYwkNcvpAfBJB/yXkldlMgHKcB4d1KhkjCyAofQr/g8C/WMEQ
JnGYdIEk2TwX0Sgm3mlw4pxynK69Jahsm5RPxidpisx1kvnpZWAMoMKEaJn292XC
Hs9Ca1h8pHFiaCZV8BFvPbfiKEBN73Wok6BWxOTmaoeMvAp+/tAq3jZt1BCcceNi
sD6czFRhghE5+JxGilSV85vUAW6SDRkfD9N8jsEARfyPol4oG0b+X3cKmWF+9EFX
13RJH8V/ohMDz2Pe+wnp+mQnqGF6JbvIaC7E3uOY6dKTveuM5mo5wvH9Cgx9Hgza
mM7/77qwFcwdhfpVvUwA/Xtis3BjgCE0m5qFsBP9PkHfsxdlSbAlF5tZjfIKHAhT
fgGLxuZo58eNkqVotBmWKG0Dz37a6ORRSv/wj3HQ5xBvJVKYM9NvwJGnoZn6R9cY
pa8CAwEAAaOBijCBhzAJBgNVHRMEAjAAMAsGA1UdDwQEAwIF4DAxBggrBgEFBQcB
AQQlMCMwIQYIKwYBBQUHMAGGFWh0dHA6Ly8xMjcuMC4wLjE6ODg4ODARBggrBgEF
BQcBGAQFMAMCAQUwJwYDVR0RBCAwHoIMYXBwLm5hdHMuZGV2gg4qLmFwcC5uYXRz
LmRldjANBgkqhkiG9w0BAQsFAAOCAgEAjwjPqiaagt61rDmqGjRuGPP+t8HDuTD8
CvU7cHI3X6KFQRleGafD9LvuHGYDTzcASAVmbnQRGkrn4Didj2dXhMceCW6riBZG
LwLREQe0RxVb4+6JaSm9q+t6IIMs/TFBUwCVKyj6UJ9YYLI+ayiP84oWxFIbfk0M
F43Ae638b3LHx/J/XOd+5Z+SakWmiHEgo9qg1TuUnQxv+kxhk6GNBSs/WVPwOmDw
cLEciTEzg1NFtnS/wEUguChNmijO82rqUUqQIz4ymw7BPW6F4SlgNvtj4y+hSzxk
1OOqdWH4QvkWxn5y1AZFKkAA4bjZ8CDpToU2Nl7S2Na2/vweTEqFofCyOEn1IWv3
GQKVDWNwZ88a6zyb/e0vZNHOlPNYUcVLk98Os9IqX5KgfGiWNGHy3LDGWDQTK9RO
WXq8MopVGyqrW98q6jE+Q1Of3I06nHszaYR8rTPZVccdMi9xsZWYOXdkjvgvkSwt
JgGSzu5j3DxMlO6entmNR3KX3hGIrLznvJJ221NG3kzYbDMyuxjjAAYg64Cn8AYj
8SXuxOwR8hr8A25ju1cruGhOXE1q8zkoSzTkG86W3KciRIrvMzPNobZ0m+6jaydr
lCm6ku9hGk0YR25v4MHO9Th2yWOIsau86sgOtSY/DCpeDDv4AMuMlOB5m3UPBDTn
Uuy/4Sd78mw=
-----END CERTIFICATE-----
